target datalayout = "e-m:e-p270:32:32-p271:32:32-p272:64:64-i64:64-i128:128-f80:128-n8:16:32:64-S128"
target triple = "x86_64-pc-linux-gnu"

%class.anon = type { ptr }
%"class.Luau::Variant" = type { i32, [4 x i8], [104 x i8] }

; Function Attrs: mustprogress uwtable
define internal void @"_ZN4Luau5visitIRZNS_lsERSoRKNS_7VariantIJNS_12TypeMismatchENS_13UnknownSymbolENS_15UnknownPropertyENS_9NotATableENS_17CannotExtendTableENS_24OnlyTablesCanHaveMethodsENS_23DuplicateTypeDefinitionENS_13CountMismatchENS_23FunctionDoesNotTakeSelfENS_20FunctionRequiresSelfENS_17OccursCheckFailedENS_14UnknownRequireENS_30IncorrectGenericParameterCountENS_11SyntaxErrorENS_14CodeTooComplexENS_21UnificationTooComplexENS_27UnknownPropButFoundLikePropENS_12GenericErrorENS_13InternalErrorENS_21CannotCallNonFunctionENS_16ExtraInformationENS_17DeprecatedApiUsedENS_25ModuleHasCyclicDependencyENS_14IllegalRequireENS_29FunctionExitsWithoutReturningENS_25DuplicateGenericParameterENS_19CannotAssignToNeverENS_26CannotInferBinaryOperationENS_17MissingPropertiesENS_27SwappedGenericTypeParameterENS_19OptionalValueAccessENS_20MissingUnionPropertyENS_17TypesAreUnrelatedENS_23NormalizationTooComplexENS_16TypePackMismatchENS_36DynamicPropertyLookupOnClassesUnsafeENS_21UninhabitedTypeFamilyENS_25UninhabitedTypePackFamilyENS_17WhereClauseNeededENS_21PackWhereClauseNeededENS_24CheckedFunctionCallErrorENS_32NonStrictFunctionDefinitionErrorENS_23PropertyAccessViolationENS_28CheckedFunctionIncorrectArgsENS_25UnexpectedTypeInSubtypingENS_29UnexpectedTypePackInSubtypingENS_37ExplicitFunctionAnnotationRecommendedEEEEE3$_0JS3_S4_S5_S6_S7_S8_S9_SA_SB_SC_SD_SE_SF_SG_SH_SI_SJ_SK_SL_SM_SN_SO_SP_SQ_SR_SS_ST_SU_SV_SW_SX_SY_SZ_S10_S11_S12_S13_S14_S15_S16_S17_S18_S19_S1A_S1B_S1C_S1D_EEEDaOT_RKNS2_IJDpT0_EEE"(ptr noundef nonnull align 8 dereferenceable(8) %0, ptr noundef nonnull align 8 dereferenceable(112) %1) #3 {
  %3 = alloca ptr, align 8
  %4 = alloca ptr, align 8
  store ptr %0, ptr %3, align 8
  store ptr %1, ptr %4, align 8
  %5 = load ptr, ptr %4, align 8
  %6 = getelementptr inbounds %"class.Luau::Variant", ptr %5, i32 0, i32 0
  %7 = load i32, ptr %6, align 8
  %8 = sext i32 %7 to i64
  %9 = getelementptr inbounds [47 x ptr], ptr @"_ZZN4Luau5visitIRZNS_lsERSoRKNS_7VariantIJNS_12TypeMismatchENS_13UnknownSymbolENS_15UnknownPropertyENS_9NotATableENS_17CannotExtendTableENS_24OnlyTablesCanHaveMethodsENS_23DuplicateTypeDefinitionENS_13CountMismatchENS_23FunctionDoesNotTakeSelfENS_20FunctionRequiresSelfENS_17OccursCheckFailedENS_14UnknownRequireENS_30IncorrectGenericParameterCountENS_11SyntaxErrorENS_14CodeTooComplexENS_21UnificationTooComplexENS_27UnknownPropButFoundLikePropENS_12GenericErrorENS_13InternalErrorENS_21CannotCallNonFunctionENS_16ExtraInformationENS_17DeprecatedApiUsedENS_25ModuleHasCyclicDependencyENS_14IllegalRequireENS_29FunctionExitsWithoutReturningENS_25DuplicateGenericParameterENS_19CannotAssignToNeverENS_26CannotInferBinaryOperationENS_17MissingPropertiesENS_27SwappedGenericTypeParameterENS_19OptionalValueAccessENS_20MissingUnionPropertyENS_17TypesAreUnrelatedENS_23NormalizationTooComplexENS_16TypePackMismatchENS_36DynamicPropertyLookupOnClassesUnsafeENS_21UninhabitedTypeFamilyENS_25UninhabitedTypePackFamilyENS_17WhereClauseNeededENS_21PackWhereClauseNeededENS_24CheckedFunctionCallErrorENS_32NonStrictFunctionDefinitionErrorENS_23PropertyAccessViolationENS_28CheckedFunctionIncorrectArgsENS_25UnexpectedTypeInSubtypingENS_29UnexpectedTypePackInSubtypingENS_37ExplicitFunctionAnnotationRecommendedEEEEE3$_0JS3_S4_S5_S6_S7_S8_S9_SA_SB_SC_SD_SE_SF_SG_SH_SI_SJ_SK_SL_SM_SN_SO_SP_SQ_SR_SS_ST_SU_SV_SW_SX_SY_SZ_S10_S11_S12_S13_S14_S15_S16_S17_S18_S19_S1A_S1B_S1C_S1D_EEEDaOT_RKNS2_IJDpT0_EEEE10tableVisit", i64 0, i64 %8
  %10 = load ptr, ptr %9, align 8
  %11 = load ptr, ptr %3, align 8
  %12 = load ptr, ptr %4, align 8
  %13 = getelementptr inbounds %"class.Luau::Variant", ptr %12, i32 0, i32 2
  call void %10(ptr noundef nonnull align 8 dereferenceable(8) %11, ptr noundef %13)
  ret void
}

; Function Attrs: mustprogress uwtable
define dso_local noundef nonnull align 8 dereferenceable(8) ptr @_ZN4LuaulsERSoRKNS_7VariantIJNS_12TypeMismatchENS_13UnknownSymbolENS_15UnknownPropertyENS_9NotATableENS_17CannotExtendTableENS_24OnlyTablesCanHaveMethodsENS_23DuplicateTypeDefinitionENS_13CountMismatchENS_23FunctionDoesNotTakeSelfENS_20FunctionRequiresSelfENS_17OccursCheckFailedENS_14UnknownRequireENS_30IncorrectGenericParameterCountENS_11SyntaxErrorENS_14CodeTooComplexENS_21UnificationTooComplexENS_27UnknownPropButFoundLikePropENS_12GenericErrorENS_13InternalErrorENS_21CannotCallNonFunctionENS_16ExtraInformationENS_17DeprecatedApiUsedENS_25ModuleHasCyclicDependencyENS_14IllegalRequireENS_29FunctionExitsWithoutReturningENS_25DuplicateGenericParameterENS_19CannotAssignToNeverENS_26CannotInferBinaryOperationENS_17MissingPropertiesENS_27SwappedGenericTypeParameterENS_19OptionalValueAccessENS_20MissingUnionPropertyENS_17TypesAreUnrelatedENS_23NormalizationTooComplexENS_16TypePackMismatchENS_36DynamicPropertyLookupOnClassesUnsafeENS_21UninhabitedTypeFamilyENS_25UninhabitedTypePackFamilyENS_17WhereClauseNeededENS_21PackWhereClauseNeededENS_24CheckedFunctionCallErrorENS_32NonStrictFunctionDefinitionErrorENS_23PropertyAccessViolationENS_28CheckedFunctionIncorrectArgsENS_25UnexpectedTypeInSubtypingENS_29UnexpectedTypePackInSubtypingENS_37ExplicitFunctionAnnotationRecommendedEEEE(ptr noundef nonnull align 8 dereferenceable(8) %0, ptr noundef nonnull align 8 dereferenceable(112) %1) #3 {
  %3 = alloca ptr, align 8
  %4 = alloca ptr, align 8
  %5 = alloca %class.anon, align 8
  store ptr %0, ptr %3, align 8
  store ptr %1, ptr %4, align 8
  %6 = getelementptr inbounds %class.anon, ptr %5, i32 0, i32 0
  %7 = load ptr, ptr %3, align 8
  store ptr %7, ptr %6, align 8
  %8 = load ptr, ptr %4, align 8
  call void @"_ZN4Luau5visitIRZNS_lsERSoRKNS_7VariantIJNS_12TypeMismatchENS_13UnknownSymbolENS_15UnknownPropertyENS_9NotATableENS_17CannotExtendTableENS_24OnlyTablesCanHaveMethodsENS_23DuplicateTypeDefinitionENS_13CountMismatchENS_23FunctionDoesNotTakeSelfENS_20FunctionRequiresSelfENS_17OccursCheckFailedENS_14UnknownRequireENS_30IncorrectGenericParameterCountENS_11SyntaxErrorENS_14CodeTooComplexENS_21UnificationTooComplexENS_27UnknownPropButFoundLikePropENS_12GenericErrorENS_13InternalErrorENS_21CannotCallNonFunctionENS_16ExtraInformationENS_17DeprecatedApiUsedENS_25ModuleHasCyclicDependencyENS_14IllegalRequireENS_29FunctionExitsWithoutReturningENS_25DuplicateGenericParameterENS_19CannotAssignToNeverENS_26CannotInferBinaryOperationENS_17MissingPropertiesENS_27SwappedGenericTypeParameterENS_19OptionalValueAccessENS_20MissingUnionPropertyENS_17TypesAreUnrelatedENS_23NormalizationTooComplexENS_16TypePackMismatchENS_36DynamicPropertyLookupOnClassesUnsafeENS_21UninhabitedTypeFamilyENS_25UninhabitedTypePackFamilyENS_17WhereClauseNeededENS_21PackWhereClauseNeededENS_24CheckedFunctionCallErrorENS_32NonStrictFunctionDefinitionErrorENS_23PropertyAccessViolationENS_28CheckedFunctionIncorrectArgsENS_25UnexpectedTypeInSubtypingENS_29UnexpectedTypePackInSubtypingENS_37ExplicitFunctionAnnotationRecommendedEEEEE3$_0JS3_S4_S5_S6_S7_S8_S9_SA_SB_SC_SD_SE_SF_SG_SH_SI_SJ_SK_SL_SM_SN_SO_SP_SQ_SR_SS_ST_SU_SV_SW_SX_SY_SZ_S10_S11_S12_S13_S14_S15_S16_S17_S18_S19_S1A_S1B_S1C_S1D_EEEDaOT_RKNS2_IJDpT0_EEE"(ptr noundef nonnull align 8 dereferenceable(8) %5, ptr noundef nonnull align 8 dereferenceable(112) %8)
  %9 = load ptr, ptr %3, align 8
  ret ptr %9
}