; Function Attrs: mustprogress uwtable
define dso_local noundef nonnull align 8 dereferenceable(8) ptr @_ZN4LuaulsERSoRKNS_7VariantIJNS_12TypeMismatchENS_13UnknownSymbolENS_15UnknownPropertyENS_9NotATableENS_17CannotExtendTableENS_24OnlyTablesCanHaveMethodsENS_23DuplicateTypeDefinitionENS_13CountMismatchENS_23FunctionDoesNotTakeSelfENS_20FunctionRequiresSelfENS_17OccursCheckFailedENS_14UnknownRequireENS_30IncorrectGenericParameterCountENS_11SyntaxErrorENS_14CodeTooComplexENS_21UnificationTooComplexENS_27UnknownPropButFoundLikePropENS_12GenericErrorENS_13InternalErrorENS_21CannotCallNonFunctionENS_16ExtraInformationENS_17DeprecatedApiUsedENS_25ModuleHasCyclicDependencyENS_14IllegalRequireENS_29FunctionExitsWithoutReturningENS_25DuplicateGenericParameterENS_19CannotAssignToNeverENS_26CannotInferBinaryOperationENS_17MissingPropertiesENS_27SwappedGenericTypeParameterENS_19OptionalValueAccessENS_20MissingUnionPropertyENS_17TypesAreUnrelatedENS_23NormalizationTooComplexENS_16TypePackMismatchENS_36DynamicPropertyLookupOnClassesUnsafeENS_21UninhabitedTypeFamilyENS_25UninhabitedTypePackFamilyENS_17WhereClauseNeededENS_21PackWhereClauseNeededENS_24CheckedFunctionCallErrorENS_32NonStrictFunctionDefinitionErrorENS_23PropertyAccessViolationENS_28CheckedFunctionIncorrectArgsENS_25UnexpectedTypeInSubtypingENS_29UnexpectedTypePackInSubtypingENS_37ExplicitFunctionAnnotationRecommendedEEEE(ptr noundef nonnull returned align 8 dereferenceable(8) %0, ptr noundef nonnull align 8 dereferenceable(112) %1) local_unnamed_addr #3 {
  %3 = alloca %class.anon, align 8
  store ptr %0, ptr %3, align 8
  %4 = load i32, ptr %1, align 8
  %5 = sext i32 %4 to i64
  %6 = getelementptr inbounds [47 x ptr], ptr @"_ZZN4Luau5visitIRZNS_lsERSoRKNS_7VariantIJNS_12TypeMismatchENS_13UnknownSymbolENS_15UnknownPropertyENS_9NotATableENS_17CannotExtendTableENS_24OnlyTablesCanHaveMethodsENS_23DuplicateTypeDefinitionENS_13CountMismatchENS_23FunctionDoesNotTakeSelfENS_20FunctionRequiresSelfENS_17OccursCheckFailedENS_14UnknownRequireENS_30IncorrectGenericParameterCountENS_11SyntaxErrorENS_14CodeTooComplexENS_21UnificationTooComplexENS_27UnknownPropButFoundLikePropENS_12GenericErrorENS_13InternalErrorENS_21CannotCallNonFunctionENS_16ExtraInformationENS_17DeprecatedApiUsedENS_25ModuleHasCyclicDependencyENS_14IllegalRequireENS_29FunctionExitsWithoutReturningENS_25DuplicateGenericParameterENS_19CannotAssignToNeverENS_26CannotInferBinaryOperationENS_17MissingPropertiesENS_27SwappedGenericTypeParameterENS_19OptionalValueAccessENS_20MissingUnionPropertyENS_17TypesAreUnrelatedENS_23NormalizationTooComplexENS_16TypePackMismatchENS_36DynamicPropertyLookupOnClassesUnsafeENS_21UninhabitedTypeFamilyENS_25UninhabitedTypePackFamilyENS_17WhereClauseNeededENS_21PackWhereClauseNeededENS_24CheckedFunctionCallErrorENS_32NonStrictFunctionDefinitionErrorENS_23PropertyAccessViolationENS_28CheckedFunctionIncorrectArgsENS_25UnexpectedTypeInSubtypingENS_29UnexpectedTypePackInSubtypingENS_37ExplicitFunctionAnnotationRecommendedEEEEE3$_0JS3_S4_S5_S6_S7_S8_S9_SA_SB_SC_SD_SE_SF_SG_SH_SI_SJ_SK_SL_SM_SN_SO_SP_SQ_SR_SS_ST_SU_SV_SW_SX_SY_SZ_S10_S11_S12_S13_S14_S15_S16_S17_S18_S19_S1A_S1B_S1C_S1D_EEEDaOT_RKNS2_IJDpT0_EEEE10tableVisit", i64 0, i64 %5
  %7 = load ptr, ptr %6, align 8
  %8 = getelementptr inbounds i8, ptr %1, i64 8
  call void %7(ptr noundef nonnull align 8 dereferenceable(8) %3, ptr noundef nonnull %8)
  ret ptr %0
}